target datalayout = "e-m:e-p270:32:32-p271:32:32-p272:64:64-i64:64-i128:128-f80:128-n8:16:32:64-S128"
target triple = "x86_64-pc-linux-gnu"

%struct.IpvideoContext = type { ptr, %struct.HpelDSPContext, ptr, ptr, ptr, ptr, ptr, i32, ptr, i32, i32, %struct.GetByteContext, %struct.GetByteContext, ptr, i32, i32, i32, [256 x i32] }
%struct.HpelDSPContext = type { [4 x [4 x ptr]], [4 x [4 x ptr]], [4 x [4 x ptr]], [4 x ptr] }
%struct.GetByteContext = type { ptr, ptr, ptr }

; Function Attrs: alwaysinline nounwind uwtable
define internal i32 @bytestream_get_le16(ptr noundef %0) #4 {
  %2 = alloca ptr, align 8
  store ptr %0, ptr %2, align 8, !tbaa !94
  %3 = load ptr, ptr %2, align 8, !tbaa !94
  %4 = load ptr, ptr %3, align 8, !tbaa !59
  %5 = getelementptr inbounds i8, ptr %4, i64 2
  store ptr %5, ptr %3, align 8, !tbaa !59
  %6 = load ptr, ptr %2, align 8, !tbaa !94
  %7 = load ptr, ptr %6, align 8, !tbaa !59
  %8 = getelementptr inbounds i8, ptr %7, i64 -2
  %9 = load i16, ptr %8, align 1, !tbaa !62
  %10 = zext i16 %9 to i32
  ret i32 %10
}

; Function Attrs: alwaysinline nounwind uwtable
define internal i32 @bytestream2_get_le16u(ptr noundef %0) #4 {
  %2 = alloca ptr, align 8
  store ptr %0, ptr %2, align 8, !tbaa !67
  %3 = load ptr, ptr %2, align 8, !tbaa !67
  %4 = getelementptr inbounds nuw %struct.GetByteContext, ptr %3, i32 0, i32 0
  %5 = call i32 @bytestream_get_le16(ptr noundef %4)
  ret i32 %5
}

; Function Attrs: alwaysinline nounwind uwtable
define internal i32 @bytestream2_get_le16(ptr noundef %0) #4 {
  %2 = alloca i32, align 4
  %3 = alloca ptr, align 8
  store ptr %0, ptr %3, align 8, !tbaa !67
  %4 = load ptr, ptr %3, align 8, !tbaa !67
  %5 = getelementptr inbounds nuw %struct.GetByteContext, ptr %4, i32 0, i32 1
  %6 = load ptr, ptr %5, align 8, !tbaa !71
  %7 = load ptr, ptr %3, align 8, !tbaa !67
  %8 = getelementptr inbounds nuw %struct.GetByteContext, ptr %7, i32 0, i32 0
  %9 = load ptr, ptr %8, align 8, !tbaa !69
  %10 = ptrtoint ptr %6 to i64
  %11 = ptrtoint ptr %9 to i64
  %12 = sub i64 %10, %11
  %13 = icmp slt i64 %12, 2
  br i1 %13, label %14, label %20

14:                                               ; preds = %1
  %15 = load ptr, ptr %3, align 8, !tbaa !67
  %16 = getelementptr inbounds nuw %struct.GetByteContext, ptr %15, i32 0, i32 1
  %17 = load ptr, ptr %16, align 8, !tbaa !71
  %18 = load ptr, ptr %3, align 8, !tbaa !67
  %19 = getelementptr inbounds nuw %struct.GetByteContext, ptr %18, i32 0, i32 0
  store ptr %17, ptr %19, align 8, !tbaa !69
  store i32 0, ptr %2, align 4
  br label %23

20:                                               ; preds = %1
  %21 = load ptr, ptr %3, align 8, !tbaa !67
  %22 = call i32 @bytestream2_get_le16u(ptr noundef %21)
  store i32 %22, ptr %2, align 4
  br label %23

23:                                               ; preds = %20, %14
  %24 = load i32, ptr %2, align 4
  ret i32 %24
}

; Function Attrs: nounwind uwtable
define internal i32 @ipvideo_decode_block_opcode_0xC_16(ptr noundef %0, ptr noundef %1) #1 {
  %3 = alloca ptr, align 8
  %4 = alloca ptr, align 8
  %5 = alloca i32, align 4
  %6 = alloca i32, align 4
  %7 = alloca ptr, align 8
  store ptr %0, ptr %3, align 8, !tbaa !29
  store ptr %1, ptr %4, align 8, !tbaa !53
  call void @llvm.lifetime.start.p0(i64 4, ptr %5) #11
  call void @llvm.lifetime.start.p0(i64 4, ptr %6) #11
  call void @llvm.lifetime.start.p0(i64 8, ptr %7) #11
  %8 = load ptr, ptr %3, align 8, !tbaa !29
  %9 = getelementptr inbounds nuw %struct.IpvideoContext, ptr %8, i32 0, i32 13
  %10 = load ptr, ptr %9, align 8, !tbaa !77
  store ptr %10, ptr %7, align 8, !tbaa !135
  store i32 0, ptr %6, align 4, !tbaa !61
  br label %11

11:                                               ; preds = %60, %2
  %12 = load i32, ptr %6, align 4, !tbaa !61
  %13 = icmp slt i32 %12, 8
  br i1 %13, label %14, label %63

14:                                               ; preds = %11
  store i32 0, ptr %5, align 4, !tbaa !61
  br label %15

15:                                               ; preds = %49, %14
  %16 = load i32, ptr %5, align 4, !tbaa !61
  %17 = icmp slt i32 %16, 8
  br i1 %17, label %18, label %52

18:                                               ; preds = %15
  %19 = load ptr, ptr %3, align 8, !tbaa !29
  %20 = getelementptr inbounds nuw %struct.IpvideoContext, ptr %19, i32 0, i32 11
  %21 = call i32 @bytestream2_get_le16(ptr noundef %20)
  %22 = trunc i32 %21 to i16
  %23 = load ptr, ptr %7, align 8, !tbaa !135
  %24 = load i32, ptr %5, align 4, !tbaa !61
  %25 = add nsw i32 %24, 1
  %26 = load ptr, ptr %3, align 8, !tbaa !29
  %27 = getelementptr inbounds nuw %struct.IpvideoContext, ptr %26, i32 0, i32 15
  %28 = load i32, ptr %27, align 4, !tbaa !72
  %29 = add nsw i32 %25, %28
  %30 = sext i32 %29 to i64
  %31 = getelementptr inbounds i16, ptr %23, i64 %30
  store i16 %22, ptr %31, align 2, !tbaa !75
  %32 = load ptr, ptr %7, align 8, !tbaa !135
  %33 = load i32, ptr %5, align 4, !tbaa !61
  %34 = load ptr, ptr %3, align 8, !tbaa !29
  %35 = getelementptr inbounds nuw %struct.IpvideoContext, ptr %34, i32 0, i32 15
  %36 = load i32, ptr %35, align 4, !tbaa !72
  %37 = add nsw i32 %33, %36
  %38 = sext i32 %37 to i64
  %39 = getelementptr inbounds i16, ptr %32, i64 %38
  store i16 %22, ptr %39, align 2, !tbaa !75
  %40 = load ptr, ptr %7, align 8, !tbaa !135
  %41 = load i32, ptr %5, align 4, !tbaa !61
  %42 = add nsw i32 %41, 1
  %43 = sext i32 %42 to i64
  %44 = getelementptr inbounds i16, ptr %40, i64 %43
  store i16 %22, ptr %44, align 2, !tbaa !75
  %45 = load ptr, ptr %7, align 8, !tbaa !135
  %46 = load i32, ptr %5, align 4, !tbaa !61
  %47 = sext i32 %46 to i64
  %48 = getelementptr inbounds i16, ptr %45, i64 %47
  store i16 %22, ptr %48, align 2, !tbaa !75
  br label %49

49:                                               ; preds = %18
  %50 = load i32, ptr %5, align 4, !tbaa !61
  %51 = add nsw i32 %50, 2
  store i32 %51, ptr %5, align 4, !tbaa !61
  br label %15, !llvm.loop !164

52:                                               ; preds = %15
  %53 = load ptr, ptr %3, align 8, !tbaa !29
  %54 = getelementptr inbounds nuw %struct.IpvideoContext, ptr %53, i32 0, i32 15
  %55 = load i32, ptr %54, align 4, !tbaa !72
  %56 = mul nsw i32 %55, 2
  %57 = load ptr, ptr %7, align 8, !tbaa !135
  %58 = sext i32 %56 to i64
  %59 = getelementptr inbounds i16, ptr %57, i64 %58
  store ptr %59, ptr %7, align 8, !tbaa !135
  br label %60

60:                                               ; preds = %52
  %61 = load i32, ptr %6, align 4, !tbaa !61
  %62 = add nsw i32 %61, 2
  store i32 %62, ptr %6, align 4, !tbaa !61
  br label %11, !llvm.loop !165

63:                                               ; preds = %11
  call void @llvm.lifetime.end.p0(i64 8, ptr %7) #11
  call void @llvm.lifetime.end.p0(i64 4, ptr %6) #11
  call void @llvm.lifetime.end.p0(i64 4, ptr %5) #11
  ret i32 0
}