; Function Attrs: nofree norecurse nosync nounwind memory(readwrite, inaccessiblemem: none) uwtable
define internal noundef i32 @ipvideo_decode_block_opcode_0xC_16(ptr noundef captures(none) %0, ptr readnone captures(none) %1) #6 {
  %3 = getelementptr inbounds nuw i8, ptr %0, i64 536
  %4 = load ptr, ptr %3, align 8, !tbaa !67
  %5 = getelementptr inbounds nuw i8, ptr %0, i64 488
  %6 = getelementptr inbounds nuw i8, ptr %0, i64 496
  %7 = load ptr, ptr %6, align 8, !tbaa !60
  %8 = ptrtoint ptr %7 to i64
  %9 = getelementptr inbounds nuw i8, ptr %0, i64 548
  %10 = load i32, ptr %9, align 4, !tbaa !63
  %11 = shl nsw i32 %10, 1
  %12 = sext i32 %11 to i64
  %.promoted20 = load ptr, ptr %5, align 8, !tbaa !53
  %13 = sext i32 %10 to i64
  br label %.preheader

.preheader:                                       ; preds = %2, %28
  %.024 = phi ptr [ %4, %2 ], [ %29, %28 ]
  %.01723 = phi i32 [ 0, %2 ], [ %30, %28 ]
  %.promoted2122 = phi ptr [ %.promoted20, %2 ], [ %23, %28 ]
  %invariant.gep = getelementptr i16, ptr %.024, i64 %13
  %invariant.gep26 = getelementptr i16, ptr %.024, i64 %13
  br label %14

14:                                               ; preds = %.preheader, %bytestream2_get_le16.exit
  %indvars.iv = phi i64 [ 0, %.preheader ], [ %indvars.iv.next, %bytestream2_get_le16.exit ]
  %15 = phi ptr [ %.promoted2122, %.preheader ], [ %23, %bytestream2_get_le16.exit ]
  %16 = ptrtoint ptr %15 to i64
  %17 = sub i64 %8, %16
  %18 = icmp slt i64 %17, 2
  br i1 %18, label %19, label %20

19:                                               ; preds = %14
  store ptr %7, ptr %5, align 8, !tbaa !58
  br label %bytestream2_get_le16.exit

20:                                               ; preds = %14
  %21 = getelementptr inbounds nuw i8, ptr %15, i64 2
  store ptr %21, ptr %5, align 8, !tbaa !53
  %22 = load i16, ptr %15, align 1, !tbaa !54
  br label %bytestream2_get_le16.exit

bytestream2_get_le16.exit:                        ; preds = %19, %20
  %23 = phi ptr [ %7, %19 ], [ %21, %20 ]
  %.0.i = phi i16 [ 0, %19 ], [ %22, %20 ]
  %24 = or disjoint i64 %indvars.iv, 1
  %gep = getelementptr i16, ptr %invariant.gep, i64 %24
  store i16 %.0.i, ptr %gep, align 2, !tbaa !116
  %gep27 = getelementptr i16, ptr %invariant.gep26, i64 %indvars.iv
  store i16 %.0.i, ptr %gep27, align 2, !tbaa !116
  %25 = getelementptr inbounds nuw i16, ptr %.024, i64 %24
  store i16 %.0.i, ptr %25, align 2, !tbaa !116
  %26 = getelementptr inbounds nuw i16, ptr %.024, i64 %indvars.iv
  store i16 %.0.i, ptr %26, align 2, !tbaa !116
  %indvars.iv.next = add nuw nsw i64 %indvars.iv, 2
  %27 = icmp samesign ult i64 %indvars.iv, 6
  br i1 %27, label %14, label %28, !llvm.loop !146

28:                                               ; preds = %bytestream2_get_le16.exit
  %29 = getelementptr inbounds i16, ptr %.024, i64 %12
  %30 = add nuw nsw i32 %.01723, 2
  %31 = icmp samesign ult i32 %.01723, 6
  br i1 %31, label %.preheader, label %32, !llvm.loop !147

32:                                               ; preds = %28
  ret i32 0
}